; Function Attrs: mustprogress uwtable
define void @_ZN9grpc_core16TracedBufferList8ShutdownEPvN4absl12lts_202407226StatusE(ptr noundef nonnull align 8 dereferenceable(24) %0, ptr noundef %1, ptr noundef readonly captures(none) %2) local_unnamed_addr #3 align 2 personality ptr @__gxx_personality_v0 {
  %4 = alloca %"class.absl::lts_20240722::Status", align 8
  %5 = alloca %"class.absl::lts_20240722::Status", align 8
  tail call void @_ZN4absl12lts_202407225Mutex4LockEv(ptr noundef nonnull align 8 dereferenceable(8) %0)
  %6 = getelementptr inbounds nuw i8, ptr %0, i64 8
  %7 = load ptr, ptr %6, align 8, !tbaa !50
  %.not23 = icmp eq ptr %7, null
  br i1 %.not23, label %._crit_edge, label %.lr.ph

.lr.ph:                                           ; preds = %3, %_ZN4absl12lts_202407226StatusD2Ev.exit
  %8 = phi ptr [ %29, %_ZN4absl12lts_202407226StatusD2Ev.exit ], [ %7, %3 ]
  %9 = load ptr, ptr @_ZN9grpc_core12_GLOBAL__N_121g_timestamps_callbackE, align 8, !tbaa !65
  %10 = getelementptr inbounds nuw i8, ptr %8, i64 32
  %11 = load ptr, ptr %10, align 8, !tbaa !36
  %12 = load i64, ptr %2, align 8, !tbaa !66
  store i64 %12, ptr %4, align 8, !tbaa !66
  %13 = and i64 %12, 1
  %.not.i.i = icmp eq i64 %13, 0
  br i1 %.not.i.i, label %14, label %_ZN4absl12lts_202407226StatusC2ERKS1_.exit

14:                                               ; preds = %.lr.ph
  %15 = inttoptr i64 %12 to ptr
  %16 = atomicrmw add ptr %15, i32 1 monotonic, align 4
  br label %_ZN4absl12lts_202407226StatusC2ERKS1_.exit

_ZN4absl12lts_202407226StatusC2ERKS1_.exit:       ; preds = %14, %.lr.ph
  %17 = getelementptr inbounds nuw i8, ptr %8, i64 40
  invoke void %9(ptr noundef %11, ptr noundef nonnull %17, ptr noundef nonnull %4)
          to label %18 unwind label %30

18:                                               ; preds = %_ZN4absl12lts_202407226StatusC2ERKS1_.exit
  %19 = load i64, ptr %4, align 8, !tbaa !66
  %20 = and i64 %19, 1
  %.not.i.i14 = icmp eq i64 %20, 0
  br i1 %.not.i.i14, label %21, label %_ZN4absl12lts_202407226StatusD2Ev.exit

21:                                               ; preds = %18
  %22 = inttoptr i64 %19 to ptr
  invoke void @_ZNK4absl12lts_2024072215status_internal9StatusRep5UnrefEv(ptr noundef nonnull align 8 dereferenceable(48) %22)
          to label %_ZN4absl12lts_202407226StatusD2Ev.exit unwind label %23

23:                                               ; preds = %21
  %24 = landingpad { ptr, i32 }
          catch ptr null
  %25 = extractvalue { ptr, i32 } %24, 0
  call void @__clang_call_terminate(ptr %25) #20
  unreachable

_ZN4absl12lts_202407226StatusD2Ev.exit:           ; preds = %18, %21
  %26 = load ptr, ptr %6, align 8, !tbaa !50
  %27 = getelementptr inbounds nuw i8, ptr %26, i64 16
  %28 = load ptr, ptr %27, align 8, !tbaa !7
  store ptr %28, ptr %6, align 8, !tbaa !50
  call void @_ZdlPvm(ptr noundef nonnull %8, i64 noundef 1240) #21
  %29 = load ptr, ptr %6, align 8, !tbaa !50
  %.not = icmp eq ptr %29, null
  br i1 %.not, label %._crit_edge, label %.lr.ph, !llvm.loop !79

30:                                               ; preds = %_ZN4absl12lts_202407226StatusC2ERKS1_.exit
  %31 = landingpad { ptr, i32 }
          cleanup
  br label %54

._crit_edge:                                      ; preds = %_ZN4absl12lts_202407226StatusD2Ev.exit, %3
  %.not11 = icmp eq ptr %1, null
  br i1 %.not11, label %_ZN4absl12lts_202407226StatusD2Ev.exit18, label %32

32:                                               ; preds = %._crit_edge
  %33 = load ptr, ptr @_ZN9grpc_core12_GLOBAL__N_121g_timestamps_callbackE, align 8, !tbaa !65
  %34 = load i64, ptr %2, align 8, !tbaa !66
  store i64 %34, ptr %5, align 8, !tbaa !66
  %35 = and i64 %34, 1
  %.not.i.i15 = icmp eq i64 %35, 0
  br i1 %.not.i.i15, label %36, label %_ZN4absl12lts_202407226StatusC2ERKS1_.exit16

36:                                               ; preds = %32
  %37 = inttoptr i64 %34 to ptr
  %38 = atomicrmw add ptr %37, i32 1 monotonic, align 4
  br label %_ZN4absl12lts_202407226StatusC2ERKS1_.exit16

_ZN4absl12lts_202407226StatusC2ERKS1_.exit16:     ; preds = %36, %32
  invoke void %33(ptr noundef nonnull %1, ptr noundef null, ptr noundef nonnull %5)
          to label %39 unwind label %47

39:                                               ; preds = %_ZN4absl12lts_202407226StatusC2ERKS1_.exit16
  %40 = load i64, ptr %5, align 8, !tbaa !66
  %41 = and i64 %40, 1
  %.not.i.i17 = icmp eq i64 %41, 0
  br i1 %.not.i.i17, label %42, label %_ZN4absl12lts_202407226StatusD2Ev.exit18

42:                                               ; preds = %39
  %43 = inttoptr i64 %40 to ptr
  invoke void @_ZNK4absl12lts_2024072215status_internal9StatusRep5UnrefEv(ptr noundef nonnull align 8 dereferenceable(48) %43)
          to label %_ZN4absl12lts_202407226StatusD2Ev.exit18 unwind label %44

44:                                               ; preds = %42
  %45 = landingpad { ptr, i32 }
          catch ptr null
  %46 = extractvalue { ptr, i32 } %45, 0
  call void @__clang_call_terminate(ptr %46) #20
  unreachable

47:                                               ; preds = %_ZN4absl12lts_202407226StatusC2ERKS1_.exit16
  %48 = landingpad { ptr, i32 }
          cleanup
  br label %54

_ZN4absl12lts_202407226StatusD2Ev.exit18:         ; preds = %42, %39, %._crit_edge
  %49 = load ptr, ptr %6, align 8, !tbaa !50
  %50 = getelementptr inbounds nuw i8, ptr %0, i64 16
  store ptr %49, ptr %50, align 8, !tbaa !55
  invoke void @_ZN4absl12lts_202407225Mutex6UnlockEv(ptr noundef nonnull align 8 dereferenceable(8) %0)
          to label %_ZN4absl12lts_202407229MutexLockD2Ev.exit unwind label %51

51:                                               ; preds = %_ZN4absl12lts_202407226StatusD2Ev.exit18
  %52 = landingpad { ptr, i32 }
          catch ptr null
  %53 = extractvalue { ptr, i32 } %52, 0
  call void @__clang_call_terminate(ptr %53) #20
  unreachable

_ZN4absl12lts_202407229MutexLockD2Ev.exit:        ; preds = %_ZN4absl12lts_202407226StatusD2Ev.exit18
  ret void

54:                                               ; preds = %30, %47
  %.sink = phi ptr [ %4, %30 ], [ %5, %47 ]
  %.pn.pn = phi { ptr, i32 } [ %31, %30 ], [ %48, %47 ]
  call void @_ZN4absl12lts_202407226StatusD2Ev(ptr noundef nonnull align 8 dereferenceable(8) %.sink) #19
  invoke void @_ZN4absl12lts_202407225Mutex6UnlockEv(ptr noundef nonnull align 8 dereferenceable(8) %0)
          to label %_ZN4absl12lts_202407229MutexLockD2Ev.exit19 unwind label %55

55:                                               ; preds = %54
  %56 = landingpad { ptr, i32 }
          catch ptr null
  %57 = extractvalue { ptr, i32 } %56, 0
  call void @__clang_call_terminate(ptr %57) #20
  unreachable

_ZN4absl12lts_202407229MutexLockD2Ev.exit19:      ; preds = %54
  resume { ptr, i32 } %.pn.pn
}